; Function Attrs: nounwind uwtable
define void @avio_wb24(ptr noundef captures(none) %0, i32 noundef %1) local_unnamed_addr #3 {
  %3 = ashr i32 %1, 8
  %4 = lshr i32 %3, 8
  %5 = trunc i32 %4 to i8
  %6 = getelementptr inbounds nuw i8, ptr %0, i64 24
  %7 = load ptr, ptr %6, align 8, !tbaa !16
  %8 = getelementptr inbounds nuw i8, ptr %7, i64 1
  store ptr %8, ptr %6, align 8, !tbaa !16
  store i8 %5, ptr %7, align 1, !tbaa !33
  %9 = load ptr, ptr %6, align 8, !tbaa !16
  %10 = getelementptr inbounds nuw i8, ptr %0, i64 32
  %11 = load ptr, ptr %10, align 8, !tbaa !19
  %.not.i.i = icmp ult ptr %9, %11
  br i1 %.not.i.i, label %avio_w8.exit.i, label %12

12:                                               ; preds = %2
  tail call fastcc void @flush_buffer(ptr noundef nonnull %0)
  %.pre.i = load ptr, ptr %6, align 8, !tbaa !16
  br label %avio_w8.exit.i

avio_w8.exit.i:                                   ; preds = %12, %2
  %13 = phi ptr [ %9, %2 ], [ %.pre.i, %12 ]
  %14 = trunc i32 %3 to i8
  %15 = getelementptr inbounds nuw i8, ptr %13, i64 1
  store ptr %15, ptr %6, align 8, !tbaa !16
  store i8 %14, ptr %13, align 1, !tbaa !33
  %16 = load ptr, ptr %6, align 8, !tbaa !16
  %17 = load ptr, ptr %10, align 8, !tbaa !19
  %.not.i3.i = icmp ult ptr %16, %17
  br i1 %.not.i3.i, label %avio_wb16.exit, label %18

18:                                               ; preds = %avio_w8.exit.i
  tail call fastcc void @flush_buffer(ptr noundef nonnull %0)
  %.pre = load ptr, ptr %6, align 8, !tbaa !16
  br label %avio_wb16.exit

avio_wb16.exit:                                   ; preds = %avio_w8.exit.i, %18
  %19 = phi ptr [ %16, %avio_w8.exit.i ], [ %.pre, %18 ]
  %20 = trunc i32 %1 to i8
  %21 = getelementptr inbounds nuw i8, ptr %19, i64 1
  store ptr %21, ptr %6, align 8, !tbaa !16
  store i8 %20, ptr %19, align 1, !tbaa !33
  %22 = load ptr, ptr %6, align 8, !tbaa !16
  %23 = load ptr, ptr %10, align 8, !tbaa !19
  %.not.i = icmp ult ptr %22, %23
  br i1 %.not.i, label %avio_w8.exit, label %24

24:                                               ; preds = %avio_wb16.exit
  tail call fastcc void @flush_buffer(ptr noundef nonnull %0)
  br label %avio_w8.exit

avio_w8.exit:                                     ; preds = %avio_wb16.exit, %24
  ret void
}